; Function Attrs: nounwind uwtable
define range(i32 -1, 1) i32 @H5Pset_preserve(i64 noundef %0, i1 noundef zeroext %1) local_unnamed_addr #0 {
  %3 = alloca i32, align 4
  %4 = load i8, ptr @H5_libinit_g, align 1
  %5 = trunc i8 %4 to i1
  %6 = load i8, ptr @H5_libterm_g, align 1
  %7 = trunc i8 %6 to i1
  %8 = select i1 %5, i1 true, i1 %7
  br i1 %8, label %16, label %9

9:                                                ; preds = %2
  %10 = tail call i32 @H5_init_library() #8
  %11 = icmp slt i32 %10, 0
  br i1 %11, label %12, label %16

12:                                               ; preds = %9
  %13 = load i64, ptr @H5E_FUNC_g, align 8
  %14 = load i64, ptr @H5E_CANTINIT_g, align 8
  %15 = tail call i32 (ptr, ptr, i32, i64, i64, ptr, ...) @H5E_printf_stack(ptr noundef nonnull @.str.1, ptr noundef nonnull @__func__.H5Pset_preserve, i32 noundef 1171, i64 noundef %13, i64 noundef %14, ptr noundef nonnull @.str.2) #8
  br label %.thread20

16:                                               ; preds = %9, %2
  %17 = tail call i32 @H5CX_push() #8
  %18 = icmp slt i32 %17, 0
  br i1 %18, label %19, label %23

19:                                               ; preds = %16
  %20 = load i64, ptr @H5E_FUNC_g, align 8
  %21 = load i64, ptr @H5E_CANTSET_g, align 8
  %22 = tail call i32 (ptr, ptr, i32, i64, i64, ptr, ...) @H5E_printf_stack(ptr noundef nonnull @.str.1, ptr noundef nonnull @__func__.H5Pset_preserve, i32 noundef 1171, i64 noundef %20, i64 noundef %21, ptr noundef nonnull @.str.3) #8
  br label %.thread20

23:                                               ; preds = %16
  %24 = tail call i32 @H5E_clear_stack() #8
  %25 = load i64, ptr @H5P_CLS_DATASET_XFER_ID_g, align 8
  %26 = tail call ptr @H5P_object_verify(i64 noundef %0, i64 noundef %25) #8
  %27 = icmp eq ptr %26, null
  br i1 %27, label %28, label %32

28:                                               ; preds = %23
  %29 = load i64, ptr @H5E_ID_g, align 8
  %30 = load i64, ptr @H5E_BADID_g, align 8
  %31 = tail call i32 (ptr, ptr, i32, i64, i64, ptr, ...) @H5E_printf_stack(ptr noundef nonnull @.str.1, ptr noundef nonnull @__func__.H5Pset_preserve, i32 noundef 1175, i64 noundef %29, i64 noundef %30, ptr noundef nonnull @.str.5) #8
  br label %.thread26

32:                                               ; preds = %23
  %33 = select i1 %1, i32 2, i32 0
  store i32 %33, ptr %3, align 4
  %34 = call i32 @H5P_set(ptr noundef nonnull %26, ptr noundef nonnull @.str.22, ptr noundef nonnull %3) #8
  %35 = icmp slt i32 %34, 0
  br i1 %35, label %36, label %41

36:                                               ; preds = %32
  %37 = load i64, ptr @H5E_PLIST_g, align 8
  %38 = load i64, ptr @H5E_CANTSET_g, align 8
  %39 = call i32 (ptr, ptr, i32, i64, i64, ptr, ...) @H5E_printf_stack(ptr noundef nonnull @.str.1, ptr noundef nonnull @__func__.H5Pset_preserve, i32 noundef 1180, i64 noundef %37, i64 noundef %38, ptr noundef nonnull @.str.23) #8
  br label %.thread26

.thread26:                                        ; preds = %36, %28
  %40 = call i32 @H5CX_pop(i1 noundef zeroext true) #8
  br label %.thread20

41:                                               ; preds = %32
  %42 = call i32 @H5CX_pop(i1 noundef zeroext true) #8
  br label %44

.thread20:                                        ; preds = %19, %12, %.thread26
  %43 = call i32 @H5E_dump_api_stack() #8
  br label %44

44:                                               ; preds = %41, %.thread20
  %.0101523 = phi i32 [ -1, %.thread20 ], [ 0, %41 ]
  ret i32 %.0101523
}